target datalayout = "e-m:e-p270:32:32-p271:32:32-p272:64:64-i64:64-i128:128-f80:128-n8:16:32:64-S128"
target triple = "x86_64-unknown-linux-gnu"

%"class.icu_75::PluralRules" = type <{ %"class.icu_75::UObject", ptr, ptr, i32, [4 x i8] }>
%"class.icu_75::UObject" = type { ptr }
%"class.icu_75::StandardPluralRanges" = type { %"class.icu_75::MaybeStackArray.1", i32, [4 x i8] }
%"class.icu_75::MaybeStackArray.1" = type <{ ptr, i32, i8, [3 x i8], [3 x %"struct.icu_75::StandardPluralRanges::StandardPluralRangeTriple"], [4 x i8] }>
%"struct.icu_75::StandardPluralRanges::StandardPluralRangeTriple" = type { i32, i32, i32 }

@_ZTVN6icu_7511PluralRulesE = unnamed_addr constant { [6 x ptr] } { [6 x ptr] [ptr null, ptr @_ZTIN6icu_7511PluralRulesE, ptr @_ZN6icu_7511PluralRulesD1Ev, ptr @_ZN6icu_7511PluralRulesD0Ev, ptr @_ZNK6icu_7511PluralRules17getDynamicClassIDEv, ptr @_ZNK6icu_7511PluralRuleseqERKS0_] }, align 8

; Function Attrs: mustprogress uwtable
define linkonce_odr void @_ZN6icu_7515MaybeStackArrayINS_20StandardPluralRanges25StandardPluralRangeTripleELi3EE12releaseArrayEv(ptr noundef nonnull align 8 dereferenceable(52) %this) #1 comdat align 2 {
entry:
  %this.addr = alloca ptr, align 8
  store ptr %this, ptr %this.addr, align 8
  %this1 = load ptr, ptr %this.addr, align 8
  %needToRelease = getelementptr inbounds %"class.icu_75::MaybeStackArray.1", ptr %this1, i32 0, i32 2
  %0 = load i8, ptr %needToRelease, align 4
  %tobool = icmp ne i8 %0, 0
  br i1 %tobool, label %if.then, label %if.end

if.then:                                          ; preds = %entry
  %ptr = getelementptr inbounds %"class.icu_75::MaybeStackArray.1", ptr %this1, i32 0, i32 0
  %1 = load ptr, ptr %ptr, align 8
  call void @uprv_free_75(ptr noundef %1)
  br label %if.end

if.end:                                           ; preds = %if.then, %entry
  ret void
}

; Function Attrs: mustprogress nounwind uwtable
define linkonce_odr void @_ZN6icu_7515MaybeStackArrayINS_20StandardPluralRanges25StandardPluralRangeTripleELi3EED2Ev(ptr noundef nonnull align 8 dereferenceable(52) %this) unnamed_addr #0 comdat align 2 personality ptr @__gxx_personality_v0 {
entry:
  %this.addr = alloca ptr, align 8
  store ptr %this, ptr %this.addr, align 8
  %this1 = load ptr, ptr %this.addr, align 8
  invoke void @_ZN6icu_7515MaybeStackArrayINS_20StandardPluralRanges25StandardPluralRangeTripleELi3EE12releaseArrayEv(ptr noundef nonnull align 8 dereferenceable(52) %this1)
          to label %invoke.cont unwind label %terminate.lpad

invoke.cont:                                      ; preds = %entry
  ret void

terminate.lpad:                                   ; preds = %entry
  %0 = landingpad { ptr, i32 }
          catch ptr null
  %1 = extractvalue { ptr, i32 } %0, 0
  call void @__clang_call_terminate(ptr %1) #15
  unreachable
}

; Function Attrs: mustprogress nounwind uwtable
define linkonce_odr void @_ZN6icu_7520StandardPluralRangesD2Ev(ptr noundef nonnull align 8 dereferenceable(60) %this) unnamed_addr #0 comdat align 2 {
entry:
  %this.addr = alloca ptr, align 8
  store ptr %this, ptr %this.addr, align 8
  %this1 = load ptr, ptr %this.addr, align 8
  %fTriples = getelementptr inbounds %"class.icu_75::StandardPluralRanges", ptr %this1, i32 0, i32 0
  call void @_ZN6icu_7515MaybeStackArrayINS_20StandardPluralRanges25StandardPluralRangeTripleELi3EED2Ev(ptr noundef nonnull align 8 dereferenceable(52) %fTriples) #13
  ret void
}

; Function Attrs: mustprogress nounwind uwtable
define void @_ZN6icu_7511PluralRulesD2Ev(ptr noundef nonnull align 8 dereferenceable(28) %this) unnamed_addr #0 align 2 {
entry:
  %this.addr = alloca ptr, align 8
  store ptr %this, ptr %this.addr, align 8
  %this1 = load ptr, ptr %this.addr, align 8
  store ptr getelementptr inbounds ({ [6 x ptr] }, ptr @_ZTVN6icu_7511PluralRulesE, i32 0, i32 0, i32 2), ptr %this1, align 8
  %mRules = getelementptr inbounds %"class.icu_75::PluralRules", ptr %this1, i32 0, i32 1
  %0 = load ptr, ptr %mRules, align 8
  %isnull = icmp eq ptr %0, null
  br i1 %isnull, label %delete.end, label %delete.notnull

delete.notnull:                                   ; preds = %entry
  %vtable = load ptr, ptr %0, align 8
  %vfn = getelementptr inbounds ptr, ptr %vtable, i64 1
  %1 = load ptr, ptr %vfn, align 8
  call void %1(ptr noundef nonnull align 8 dereferenceable(224) %0) #13
  br label %delete.end

delete.end:                                       ; preds = %delete.notnull, %entry
  %mStandardPluralRanges = getelementptr inbounds %"class.icu_75::PluralRules", ptr %this1, i32 0, i32 2
  %2 = load ptr, ptr %mStandardPluralRanges, align 8
  %isnull2 = icmp eq ptr %2, null
  br i1 %isnull2, label %delete.end4, label %delete.notnull3

delete.notnull3:                                  ; preds = %delete.end
  call void @_ZN6icu_7520StandardPluralRangesD2Ev(ptr noundef nonnull align 8 dereferenceable(60) %2) #13
  call void @_ZN6icu_757UMemorydlEPv(ptr noundef %2) #13
  br label %delete.end4

delete.end4:                                      ; preds = %delete.notnull3, %delete.end
  call void @_ZN6icu_757UObjectD2Ev(ptr noundef nonnull align 8 dereferenceable(8) %this1) #13
  ret void
}