; Function Attrs: mustprogress nounwind uwtable
define void @_ZN6icu_7511PluralRulesD2Ev(ptr noundef nonnull align 8 dereferenceable(28) %this) unnamed_addr #0 align 2 personality ptr @__gxx_personality_v0 {
entry:
  store ptr getelementptr inbounds ({ [6 x ptr] }, ptr @_ZTVN6icu_7511PluralRulesE, i64 0, i32 0, i64 2), ptr %this, align 8
  %mRules = getelementptr inbounds i8, ptr %this, i64 8
  %0 = load ptr, ptr %mRules, align 8
  %isnull = icmp eq ptr %0, null
  br i1 %isnull, label %delete.end, label %delete.notnull

delete.notnull:                                   ; preds = %entry
  %vtable = load ptr, ptr %0, align 8
  %vfn = getelementptr inbounds i8, ptr %vtable, i64 8
  %1 = load ptr, ptr %vfn, align 8
  tail call void %1(ptr noundef nonnull align 8 dereferenceable(224) %0) #25
  br label %delete.end

delete.end:                                       ; preds = %delete.notnull, %entry
  %mStandardPluralRanges = getelementptr inbounds i8, ptr %this, i64 16
  %2 = load ptr, ptr %mStandardPluralRanges, align 8
  %isnull2 = icmp eq ptr %2, null
  br i1 %isnull2, label %delete.end4, label %delete.notnull3

delete.notnull3:                                  ; preds = %delete.end
  %needToRelease.i.i.i = getelementptr inbounds i8, ptr %2, i64 12
  %3 = load i8, ptr %needToRelease.i.i.i, align 4
  %tobool.not.i.i.i = icmp eq i8 %3, 0
  br i1 %tobool.not.i.i.i, label %_ZN6icu_7520StandardPluralRangesD2Ev.exit, label %if.then.i.i.i

if.then.i.i.i:                                    ; preds = %delete.notnull3
  %4 = load ptr, ptr %2, align 8
  invoke void @uprv_free_75(ptr noundef %4)
          to label %_ZN6icu_7520StandardPluralRangesD2Ev.exit unwind label %terminate.lpad.i.i

terminate.lpad.i.i:                               ; preds = %if.then.i.i.i
  %5 = landingpad { ptr, i32 }
          catch ptr null
  %6 = extractvalue { ptr, i32 } %5, 0
  tail call void @__clang_call_terminate(ptr %6) #27
  unreachable

_ZN6icu_7520StandardPluralRangesD2Ev.exit:        ; preds = %delete.notnull3, %if.then.i.i.i
  tail call void @_ZN6icu_757UMemorydlEPv(ptr noundef nonnull %2) #25
  br label %delete.end4

delete.end4:                                      ; preds = %_ZN6icu_7520StandardPluralRangesD2Ev.exit, %delete.end
  tail call void @_ZN6icu_757UObjectD2Ev(ptr noundef nonnull align 8 dereferenceable(8) %this) #25
  ret void
}